target datalayout = "e-m:e-p270:32:32-p271:32:32-p272:64:64-i64:64-i128:128-f80:128-n8:16:32:64-S128"
target triple = "x86_64-pc-linux-gnu"

%struct.evhttp_connection = type { %struct.anon, ptr, %struct.event, ptr, i16, ptr, i16, ptr, i64, i64, i32, %struct.timeval, %struct.timeval, %struct.timeval, i32, i32, %struct.timeval, i32, ptr, %struct.evcon_requestq, ptr, ptr, ptr, ptr, %struct.event_callback, ptr, ptr, i32, ptr }
%struct.anon = type { ptr, ptr }
%struct.event = type { %struct.event_callback, %union.anon.1, i32, i16, i16, ptr, %union.anon.3, %struct.timeval }
%union.anon.1 = type { %struct.anon.2 }
%struct.anon.2 = type { ptr, ptr }
%union.anon.3 = type { %struct.anon.4 }
%struct.anon.4 = type { %struct.anon.5, %struct.timeval }
%struct.anon.5 = type { ptr, ptr }
%struct.timeval = type { i64, i64 }
%struct.evcon_requestq = type { ptr, ptr }
%struct.event_callback = type { %struct.anon.0, i16, i8, i8, %union.anon, ptr }
%struct.anon.0 = type { ptr, ptr }
%union.anon = type { ptr }
%struct.evhttp_request = type { %struct.anon.8, ptr, i32, ptr, ptr, ptr, i16, ptr, i32, i32, i64, i64, ptr, ptr, i8, i8, i32, ptr, ptr, i64, i8, ptr, ptr, ptr, ptr, ptr, ptr, ptr, ptr }
%struct.anon.8 = type { ptr, ptr }

; Function Attrs: inlinehint nounwind uwtable
define internal void @evhttp_request_free_auto(ptr noundef %0) #7 {
  %2 = alloca ptr, align 8
  store ptr %0, ptr %2, align 8
  %3 = load ptr, ptr %2, align 8
  %4 = getelementptr inbounds nuw %struct.evhttp_request, ptr %3, i32 0, i32 2
  %5 = load i32, ptr %4, align 8
  %6 = and i32 %5, 4
  %7 = icmp ne i32 %6, 0
  br i1 %7, label %10, label %8

8:                                                ; preds = %1
  %9 = load ptr, ptr %2, align 8
  call void @evhttp_request_free(ptr noundef %9)
  br label %10

10:                                               ; preds = %8, %1
  ret void
}

; Function Attrs: nounwind uwtable
define void @evhttp_cancel_request(ptr noundef %0) #0 {
  %2 = alloca ptr, align 8
  %3 = alloca ptr, align 8
  %4 = alloca i32, align 4
  store ptr %0, ptr %2, align 8
  call void @llvm.lifetime.start.p0(i64 8, ptr %3) #11
  %5 = load ptr, ptr %2, align 8
  %6 = getelementptr inbounds nuw %struct.evhttp_request, ptr %5, i32 0, i32 1
  %7 = load ptr, ptr %6, align 8
  store ptr %7, ptr %3, align 8
  %8 = load ptr, ptr %3, align 8
  %9 = icmp ne ptr %8, null
  br i1 %9, label %10, label %57

10:                                               ; preds = %1
  %11 = load ptr, ptr %3, align 8
  %12 = getelementptr inbounds nuw %struct.evhttp_connection, ptr %11, i32 0, i32 19
  %13 = getelementptr inbounds nuw %struct.evcon_requestq, ptr %12, i32 0, i32 0
  %14 = load ptr, ptr %13, align 8
  %15 = load ptr, ptr %2, align 8
  %16 = icmp eq ptr %14, %15
  br i1 %16, label %17, label %19

17:                                               ; preds = %10
  %18 = load ptr, ptr %3, align 8
  call void @evhttp_connection_fail_(ptr noundef %18, i32 noundef 4)
  store i32 1, ptr %4, align 4
  br label %59

19:                                               ; preds = %10
  br label %20

20:                                               ; preds = %19
  %21 = load ptr, ptr %2, align 8
  %22 = getelementptr inbounds nuw %struct.evhttp_request, ptr %21, i32 0, i32 0
  %23 = getelementptr inbounds nuw %struct.anon.8, ptr %22, i32 0, i32 0
  %24 = load ptr, ptr %23, align 8
  %25 = icmp ne ptr %24, null
  br i1 %25, label %26, label %37

26:                                               ; preds = %20
  %27 = load ptr, ptr %2, align 8
  %28 = getelementptr inbounds nuw %struct.evhttp_request, ptr %27, i32 0, i32 0
  %29 = getelementptr inbounds nuw %struct.anon.8, ptr %28, i32 0, i32 1
  %30 = load ptr, ptr %29, align 8
  %31 = load ptr, ptr %2, align 8
  %32 = getelementptr inbounds nuw %struct.evhttp_request, ptr %31, i32 0, i32 0
  %33 = getelementptr inbounds nuw %struct.anon.8, ptr %32, i32 0, i32 0
  %34 = load ptr, ptr %33, align 8
  %35 = getelementptr inbounds nuw %struct.evhttp_request, ptr %34, i32 0, i32 0
  %36 = getelementptr inbounds nuw %struct.anon.8, ptr %35, i32 0, i32 1
  store ptr %30, ptr %36, align 8
  br label %45

37:                                               ; preds = %20
  %38 = load ptr, ptr %2, align 8
  %39 = getelementptr inbounds nuw %struct.evhttp_request, ptr %38, i32 0, i32 0
  %40 = getelementptr inbounds nuw %struct.anon.8, ptr %39, i32 0, i32 1
  %41 = load ptr, ptr %40, align 8
  %42 = load ptr, ptr %3, align 8
  %43 = getelementptr inbounds nuw %struct.evhttp_connection, ptr %42, i32 0, i32 19
  %44 = getelementptr inbounds nuw %struct.evcon_requestq, ptr %43, i32 0, i32 1
  store ptr %41, ptr %44, align 8
  br label %45

45:                                               ; preds = %37, %26
  %46 = load ptr, ptr %2, align 8
  %47 = getelementptr inbounds nuw %struct.evhttp_request, ptr %46, i32 0, i32 0
  %48 = getelementptr inbounds nuw %struct.anon.8, ptr %47, i32 0, i32 0
  %49 = load ptr, ptr %48, align 8
  %50 = load ptr, ptr %2, align 8
  %51 = getelementptr inbounds nuw %struct.evhttp_request, ptr %50, i32 0, i32 0
  %52 = getelementptr inbounds nuw %struct.anon.8, ptr %51, i32 0, i32 1
  %53 = load ptr, ptr %52, align 8
  store ptr %49, ptr %53, align 8
  br label %54

54:                                               ; preds = %45
  br label %55

55:                                               ; preds = %54
  br label %56

56:                                               ; preds = %55
  br label %57

57:                                               ; preds = %56, %1
  %58 = load ptr, ptr %2, align 8
  call void @evhttp_request_free_auto(ptr noundef %58)
  store i32 0, ptr %4, align 4
  br label %59

59:                                               ; preds = %57, %17
  call void @llvm.lifetime.end.p0(i64 8, ptr %3) #11
  %60 = load i32, ptr %4, align 4
  switch i32 %60, label %62 [
    i32 0, label %61
    i32 1, label %61
  ]

61:                                               ; preds = %59, %59
  ret void

62:                                               ; preds = %59
  unreachable
}