; Function Attrs: nounwind uwtable
define void @evhttp_cancel_request(ptr noundef %0) local_unnamed_addr #0 {
  %2 = getelementptr inbounds nuw i8, ptr %0, i64 16
  %3 = load ptr, ptr %2, align 8
  %.not = icmp eq ptr %3, null
  br i1 %.not, label %19, label %4

4:                                                ; preds = %1
  %5 = getelementptr inbounds nuw i8, ptr %3, i64 296
  %6 = load ptr, ptr %5, align 8
  %7 = icmp eq ptr %6, %0
  br i1 %7, label %8, label %9

8:                                                ; preds = %4
  tail call void @evhttp_connection_fail_(ptr noundef nonnull %3, i32 noundef 4)
  br label %evhttp_request_free_auto.exit

9:                                                ; preds = %4
  %10 = load ptr, ptr %0, align 8
  %.not15 = icmp eq ptr %10, null
  %11 = getelementptr inbounds nuw i8, ptr %0, i64 8
  %12 = load ptr, ptr %11, align 8
  br i1 %.not15, label %15, label %13

13:                                               ; preds = %9
  %14 = getelementptr inbounds nuw i8, ptr %10, i64 8
  store ptr %12, ptr %14, align 8
  br label %17

15:                                               ; preds = %9
  %16 = getelementptr inbounds nuw i8, ptr %3, i64 304
  store ptr %12, ptr %16, align 8
  br label %17

17:                                               ; preds = %15, %13
  %18 = load ptr, ptr %0, align 8
  store ptr %18, ptr %12, align 8
  br label %19

19:                                               ; preds = %17, %1
  %20 = getelementptr inbounds nuw i8, ptr %0, i64 24
  %21 = load i32, ptr %20, align 8
  %22 = and i32 %21, 4
  %.not.i = icmp eq i32 %22, 0
  br i1 %.not.i, label %23, label %evhttp_request_free_auto.exit

23:                                               ; preds = %19
  tail call void @evhttp_request_free(ptr noundef nonnull %0)
  br label %evhttp_request_free_auto.exit

evhttp_request_free_auto.exit:                    ; preds = %23, %19, %8
  ret void
}